; Function Attrs: mustprogress uwtable
define hidden void @_ZN4cvc58internal5proof28LfscProofPostprocessCallback16mkDummyPredicateEPNS0_11NodeManagerE(ptr dead_on_unwind noalias writable sret(%"class.cvc5::internal::NodeTemplate") align 8 %0, ptr noundef nonnull %1) local_unnamed_addr #3 align 2 personality ptr @__gxx_personality_v0 {
  %3 = alloca %"class.cvc5::internal::TypeNode", align 8
  call void @llvm.lifetime.start.p0(i64 8, ptr nonnull %3) #23
  call void @_ZN4cvc58internal11NodeManager11booleanTypeEv(ptr dead_on_unwind nonnull writable sret(%"class.cvc5::internal::TypeNode") align 8 %3, ptr noundef nonnull align 8 dereferenceable(3560) %1)
  invoke void @_ZN4cvc58internal11NodeManager10mkBoundVarERKNS0_8TypeNodeE(ptr dead_on_unwind writable sret(%"class.cvc5::internal::NodeTemplate") align 8 %0, ptr noundef nonnull align 8 dereferenceable(8) %3)
          to label %4 unwind label %18

4:                                                ; preds = %2
  %5 = load ptr, ptr %3, align 8, !tbaa !57
  %6 = load i64, ptr %5, align 8
  %7 = and i64 %6, 1152920405095219200
  %.not.i.i = icmp eq i64 %7, 1152920405095219200
  br i1 %.not.i.i, label %_ZN4cvc58internal8TypeNodeD2Ev.exit, label %8, !prof !45

8:                                                ; preds = %4
  %9 = add i64 %6, 1152920405095219200
  %10 = and i64 %9, 1152920405095219200
  %11 = and i64 %6, -1152920405095219201
  %12 = or disjoint i64 %10, %11
  store i64 %12, ptr %5, align 8
  %13 = icmp eq i64 %10, 0
  br i1 %13, label %14, label %_ZN4cvc58internal8TypeNodeD2Ev.exit, !prof !45

14:                                               ; preds = %8
  invoke void @_ZN4cvc58internal4expr9NodeValue15markForDeletionEv(ptr noundef nonnull align 8 dereferenceable(24) %5)
          to label %_ZN4cvc58internal8TypeNodeD2Ev.exit unwind label %15

15:                                               ; preds = %14
  %16 = landingpad { ptr, i32 }
          catch ptr null
  %17 = extractvalue { ptr, i32 } %16, 0
  call void @__clang_call_terminate(ptr %17) #24
  unreachable

_ZN4cvc58internal8TypeNodeD2Ev.exit:              ; preds = %4, %8, %14
  call void @llvm.lifetime.end.p0(i64 8, ptr nonnull %3) #23
  ret void

18:                                               ; preds = %2
  %19 = landingpad { ptr, i32 }
          cleanup
  call void @_ZN4cvc58internal8TypeNodeD2Ev(ptr noundef nonnull align 8 dereferenceable(8) %3) #23
  call void @llvm.lifetime.end.p0(i64 8, ptr nonnull %3) #23
  resume { ptr, i32 } %19
}